; Function Attrs: mustprogress nofree nosync nounwind willreturn memory(write, inaccessiblemem: none) uwtable
define internal noundef double @m_log(double noundef %0) #14 {
  %2 = tail call double @llvm.fabs.f64(double %0)
  %3 = fcmp ueq double %2, 0x7FF0000000000000
  br i1 %3, label %11, label %4

4:                                                ; preds = %1
  %5 = fcmp ogt double %0, 0.000000e+00
  br i1 %5, label %6, label %8

6:                                                ; preds = %4
  %7 = tail call double @llvm.log.f64(double %0), !tbaa !14
  br label %14

8:                                                ; preds = %4
  %9 = tail call ptr @__errno_location() #17
  store i32 33, ptr %9, align 4, !tbaa !14
  %10 = fcmp oeq double %0, 0.000000e+00
  %. = select i1 %10, double 0xFFF0000000000000, double 0x7FF8000000000000
  br label %14

11:                                               ; preds = %1
  %or.cond = fcmp ugt double %0, 0.000000e+00
  br i1 %or.cond, label %14, label %12

12:                                               ; preds = %11
  %13 = tail call ptr @__errno_location() #17
  store i32 33, ptr %13, align 4, !tbaa !14
  br label %14

14:                                               ; preds = %11, %8, %12, %6
  %.0 = phi double [ %7, %6 ], [ 0x7FF8000000000000, %12 ], [ %., %8 ], [ %0, %11 ]
  ret double %.0
}